; Function Attrs: mustprogress uwtable
define hidden noundef zeroext i1 @_ZNK3ue217ComponentBoundary22checkEmbeddedEndAnchorEb(ptr noundef nonnull readonly align 8 captures(none) dereferenceable(72) %0, i1 noundef returned zeroext %1) unnamed_addr #0 align 2 personality ptr @__gxx_personality_v0 {
  %3 = alloca %"class.std::__cxx11::basic_string", align 8
  %4 = alloca %"class.std::allocator.0", align 1
  br i1 %1, label %22, label %5

5:                                                ; preds = %2
  %6 = getelementptr inbounds nuw i8, ptr %0, i64 16
  %7 = load i32, ptr %6, align 8
  switch i32 %7, label %8 [
    i32 0, label %22
    i32 3, label %22
  ]

8:                                                ; preds = %5
  %9 = tail call ptr @__cxa_allocate_exception(i64 48) #15
  call void @llvm.lifetime.start.p0(i64 1, ptr nonnull %4) #15
  invoke void @_ZNSt7__cxx1112basic_stringIcSt11char_traitsIcESaIcEEC2EPKcRKS3_(ptr noundef nonnull align 8 dereferenceable(32) %3, ptr noundef nonnull @.str.1, ptr noundef nonnull align 1 dereferenceable(1) %4)
          to label %10 unwind label %_ZNSt7__cxx1112basic_stringIcSt11char_traitsIcESaIcEED2Ev.exit.thread

10:                                               ; preds = %8
  invoke void @_ZN3ue212CompileErrorC2ERKNSt7__cxx1112basic_stringIcSt11char_traitsIcESaIcEEE(ptr noundef nonnull align 8 dereferenceable(48) %9, ptr noundef nonnull align 8 dereferenceable(32) %3)
          to label %11 unwind label %13

11:                                               ; preds = %10
  store ptr getelementptr inbounds nuw inrange(-16, 16) (i8, ptr @_ZTVN3ue210ParseErrorE, i64 16), ptr %9, align 8
  invoke void @__cxa_throw(ptr nonnull %9, ptr nonnull @_ZTIN3ue210ParseErrorE, ptr nonnull @_ZN3ue210ParseErrorD1Ev) #16
          to label %24 unwind label %13

_ZNSt7__cxx1112basic_stringIcSt11char_traitsIcESaIcEED2Ev.exit.thread: ; preds = %8
  %12 = landingpad { ptr, i32 }
          cleanup
  call void @llvm.lifetime.end.p0(i64 1, ptr nonnull %4) #15
  br label %21

13:                                               ; preds = %10, %11
  %.0 = phi i1 [ false, %11 ], [ true, %10 ]
  %14 = landingpad { ptr, i32 }
          cleanup
  %15 = load ptr, ptr %3, align 8
  %16 = getelementptr inbounds nuw i8, ptr %3, i64 16
  %17 = icmp eq ptr %15, %16
  br i1 %17, label %_ZNKSt7__cxx1112basic_stringIcSt11char_traitsIcESaIcEE11_M_is_localEv.exit.thread.i.i, label %_ZNSt7__cxx1112basic_stringIcSt11char_traitsIcESaIcEED2Ev.exit

_ZNKSt7__cxx1112basic_stringIcSt11char_traitsIcESaIcEE11_M_is_localEv.exit.thread.i.i: ; preds = %13
  %18 = getelementptr inbounds nuw i8, ptr %3, i64 8
  %19 = load i64, ptr %18, align 8
  %20 = icmp ult i64 %19, 16
  call void @llvm.assume(i1 %20)
  call void @llvm.lifetime.end.p0(i64 1, ptr nonnull %4) #15
  br i1 %.0, label %21, label %23

_ZNSt7__cxx1112basic_stringIcSt11char_traitsIcESaIcEED2Ev.exit: ; preds = %13
  call void @_ZdlPv(ptr noundef %15) #14
  call void @llvm.lifetime.end.p0(i64 1, ptr nonnull %4) #15
  br i1 %.0, label %21, label %23

21:                                               ; preds = %_ZNKSt7__cxx1112basic_stringIcSt11char_traitsIcESaIcEE11_M_is_localEv.exit.thread.i.i, %_ZNSt7__cxx1112basic_stringIcSt11char_traitsIcESaIcEED2Ev.exit.thread, %_ZNSt7__cxx1112basic_stringIcSt11char_traitsIcESaIcEED2Ev.exit
  %.pn18 = phi { ptr, i32 } [ %12, %_ZNSt7__cxx1112basic_stringIcSt11char_traitsIcESaIcEED2Ev.exit.thread ], [ %14, %_ZNSt7__cxx1112basic_stringIcSt11char_traitsIcESaIcEED2Ev.exit ], [ %14, %_ZNKSt7__cxx1112basic_stringIcSt11char_traitsIcESaIcEE11_M_is_localEv.exit.thread.i.i ]
  call void @__cxa_free_exception(ptr %9) #15
  br label %23

22:                                               ; preds = %5, %5, %2
  ret i1 %1

23:                                               ; preds = %_ZNKSt7__cxx1112basic_stringIcSt11char_traitsIcESaIcEE11_M_is_localEv.exit.thread.i.i, %_ZNSt7__cxx1112basic_stringIcSt11char_traitsIcESaIcEED2Ev.exit, %21
  %.pn17 = phi { ptr, i32 } [ %14, %_ZNSt7__cxx1112basic_stringIcSt11char_traitsIcESaIcEED2Ev.exit ], [ %.pn18, %21 ], [ %14, %_ZNKSt7__cxx1112basic_stringIcSt11char_traitsIcESaIcEE11_M_is_localEv.exit.thread.i.i ]
  resume { ptr, i32 } %.pn17

24:                                               ; preds = %11
  unreachable
}